target datalayout = "e-m:e-p270:32:32-p271:32:32-p272:64:64-i64:64-i128:128-f80:128-n8:16:32:64-S128"
target triple = "x86_64-pc-linux-gnu"

%struct.lstopo_output = type { ptr, i32, i32, i32, ptr, i32, i32, i32, i32, i32, i32, i32, i32, ptr, ptr, i32, i32, i64, i64, i64, i32, [3 x [128 x i8]], i32, i32, ptr, i32, i32, i32, i32, i32, i32, %struct.hwloc_calc_level, i32, i32, i32, i64, [256 x i8], i32, i32, i32, i32, i32, float, [20 x i32], i32, i32, i32, [20 x i32], i32, [20 x i32], i32, [20 x i32], i32, i32, i32, i32, ptr, ptr, i32, [20 x i32], [20 x i32], [20 x i32], ptr, ptr, i64, ptr, i32, i32, i32 }
%struct.hwloc_calc_level = type { i32, i32, %union.hwloc_obj_attr_u, [32 x i8], i32, i32, i32, i32 }
%union.hwloc_obj_attr_u = type { %struct.hwloc_numanode_attr_s, [24 x i8] }
%struct.hwloc_numanode_attr_s = type { i64, i32, ptr }
%struct.lstopo_color = type { i32, i32, i32, i32, %union.lstopo_color_private_u, ptr }
%union.lstopo_color_private_u = type { %struct.lstopo_color_private_ascii_s }
%struct.lstopo_color_private_ascii_s = type { i32 }
%struct.lstopo_color_private_fig_s = type { i32 }

@fig_color_index = internal global i32 32, align 4
@.str.10 = private unnamed_addr constant [20 x i8] c"0 %d #%02x%02x%02x\0A\00", align 1

; Function Attrs: nounwind uwtable
define internal i32 @fig_declare_color(ptr noundef %0, ptr noundef %1) #0 {
  %3 = alloca i32, align 4
  %4 = alloca ptr, align 8
  %5 = alloca ptr, align 8
  %6 = alloca ptr, align 8
  %7 = alloca i32, align 4
  %8 = alloca i32, align 4
  %9 = alloca i32, align 4
  %10 = alloca i32, align 4
  store ptr %0, ptr %4, align 8, !tbaa !4
  store ptr %1, ptr %5, align 8, !tbaa !29
  call void @llvm.lifetime.start.p0(i64 8, ptr %6) #7
  %11 = load ptr, ptr %4, align 8, !tbaa !4
  %12 = getelementptr inbounds nuw %struct.lstopo_output, ptr %11, i32 0, i32 4
  %13 = load ptr, ptr %12, align 8, !tbaa !25
  store ptr %13, ptr %6, align 8, !tbaa !23
  call void @llvm.lifetime.start.p0(i64 4, ptr %7) #7
  %14 = load ptr, ptr %5, align 8, !tbaa !29
  %15 = getelementptr inbounds nuw %struct.lstopo_color, ptr %14, i32 0, i32 0
  %16 = load i32, ptr %15, align 8, !tbaa !31
  store i32 %16, ptr %7, align 4, !tbaa !24
  call void @llvm.lifetime.start.p0(i64 4, ptr %8) #7
  %17 = load ptr, ptr %5, align 8, !tbaa !29
  %18 = getelementptr inbounds nuw %struct.lstopo_color, ptr %17, i32 0, i32 1
  %19 = load i32, ptr %18, align 4, !tbaa !33
  store i32 %19, ptr %8, align 4, !tbaa !24
  call void @llvm.lifetime.start.p0(i64 4, ptr %9) #7
  %20 = load ptr, ptr %5, align 8, !tbaa !29
  %21 = getelementptr inbounds nuw %struct.lstopo_color, ptr %20, i32 0, i32 2
  %22 = load i32, ptr %21, align 8, !tbaa !34
  store i32 %22, ptr %9, align 4, !tbaa !24
  %23 = load i32, ptr %7, align 4, !tbaa !24
  %24 = icmp eq i32 %23, 255
  br i1 %24, label %25, label %35

25:                                               ; preds = %2
  %26 = load i32, ptr %8, align 4, !tbaa !24
  %27 = icmp eq i32 %26, 255
  br i1 %27, label %28, label %35

28:                                               ; preds = %25
  %29 = load i32, ptr %9, align 4, !tbaa !24
  %30 = icmp eq i32 %29, 255
  br i1 %30, label %31, label %35

31:                                               ; preds = %28
  %32 = load ptr, ptr %5, align 8, !tbaa !29
  %33 = getelementptr inbounds nuw %struct.lstopo_color, ptr %32, i32 0, i32 4
  %34 = getelementptr inbounds nuw %struct.lstopo_color_private_fig_s, ptr %33, i32 0, i32 0
  store i32 7, ptr %34, align 8, !tbaa !35
  store i32 0, ptr %3, align 4
  store i32 1, ptr %10, align 4
  br label %65

35:                                               ; preds = %28, %25, %2
  %36 = load i32, ptr %7, align 4, !tbaa !24
  %37 = icmp ne i32 %36, 0
  br i1 %37, label %48, label %38

38:                                               ; preds = %35
  %39 = load i32, ptr %8, align 4, !tbaa !24
  %40 = icmp ne i32 %39, 0
  br i1 %40, label %48, label %41

41:                                               ; preds = %38
  %42 = load i32, ptr %9, align 4, !tbaa !24
  %43 = icmp ne i32 %42, 0
  br i1 %43, label %48, label %44

44:                                               ; preds = %41
  %45 = load ptr, ptr %5, align 8, !tbaa !29
  %46 = getelementptr inbounds nuw %struct.lstopo_color, ptr %45, i32 0, i32 4
  %47 = getelementptr inbounds nuw %struct.lstopo_color_private_fig_s, ptr %46, i32 0, i32 0
  store i32 0, ptr %47, align 8, !tbaa !35
  store i32 0, ptr %3, align 4
  store i32 1, ptr %10, align 4
  br label %65

48:                                               ; preds = %41, %38, %35
  %49 = load i32, ptr @fig_color_index, align 4, !tbaa !24
  %50 = add nsw i32 %49, 1
  store i32 %50, ptr @fig_color_index, align 4, !tbaa !24
  %51 = load ptr, ptr %5, align 8, !tbaa !29
  %52 = getelementptr inbounds nuw %struct.lstopo_color, ptr %51, i32 0, i32 4
  %53 = getelementptr inbounds nuw %struct.lstopo_color_private_fig_s, ptr %52, i32 0, i32 0
  store i32 %49, ptr %53, align 8, !tbaa !35
  br label %54

54:                                               ; preds = %48
  br label %55

55:                                               ; preds = %54
  %56 = load ptr, ptr %6, align 8, !tbaa !23
  %57 = load ptr, ptr %5, align 8, !tbaa !29
  %58 = getelementptr inbounds nuw %struct.lstopo_color, ptr %57, i32 0, i32 4
  %59 = getelementptr inbounds nuw %struct.lstopo_color_private_fig_s, ptr %58, i32 0, i32 0
  %60 = load i32, ptr %59, align 8, !tbaa !35
  %61 = load i32, ptr %7, align 4, !tbaa !24
  %62 = load i32, ptr %8, align 4, !tbaa !24
  %63 = load i32, ptr %9, align 4, !tbaa !24
  %64 = call i32 (ptr, ptr, ...) @fprintf(ptr noundef %56, ptr noundef @.str.10, i32 noundef %60, i32 noundef %61, i32 noundef %62, i32 noundef %63) #7
  store i32 0, ptr %3, align 4
  store i32 1, ptr %10, align 4
  br label %65

65:                                               ; preds = %55, %44, %31
  call void @llvm.lifetime.end.p0(i64 4, ptr %9) #7
  call void @llvm.lifetime.end.p0(i64 4, ptr %8) #7
  call void @llvm.lifetime.end.p0(i64 4, ptr %7) #7
  call void @llvm.lifetime.end.p0(i64 8, ptr %6) #7
  %66 = load i32, ptr %3, align 4
  ret i32 %66
}