; Function Attrs: nofree nounwind uwtable
define internal noundef i32 @fig_declare_color(ptr noundef readonly captures(none) %0, ptr noundef captures(none) initializes((16, 20)) %1) #5 {
  %3 = getelementptr inbounds nuw i8, ptr %0, i64 24
  %4 = load ptr, ptr %3, align 8, !tbaa !22
  %5 = load i32, ptr %1, align 8, !tbaa !26
  %6 = getelementptr inbounds nuw i8, ptr %1, i64 4
  %7 = load i32, ptr %6, align 4, !tbaa !29
  %8 = getelementptr inbounds nuw i8, ptr %1, i64 8
  %9 = load i32, ptr %8, align 8, !tbaa !30
  %10 = icmp eq i32 %5, 255
  %11 = icmp eq i32 %7, 255
  %or.cond = select i1 %10, i1 %11, i1 false
  %12 = icmp eq i32 %9, 255
  %or.cond3 = select i1 %or.cond, i1 %12, i1 false
  br i1 %or.cond3, label %13, label %15

13:                                               ; preds = %2
  %14 = getelementptr inbounds nuw i8, ptr %1, i64 16
  store i32 7, ptr %14, align 8, !tbaa !31
  br label %26

15:                                               ; preds = %2
  %16 = icmp ne i32 %5, 0
  %17 = icmp ne i32 %7, 0
  %or.cond5 = select i1 %16, i1 true, i1 %17
  %18 = icmp ne i32 %9, 0
  %or.cond7 = select i1 %or.cond5, i1 true, i1 %18
  br i1 %or.cond7, label %21, label %19

19:                                               ; preds = %15
  %20 = getelementptr inbounds nuw i8, ptr %1, i64 16
  store i32 0, ptr %20, align 8, !tbaa !31
  br label %26

21:                                               ; preds = %15
  %22 = load i32, ptr @fig_color_index, align 4, !tbaa !21
  %23 = add nsw i32 %22, 1
  store i32 %23, ptr @fig_color_index, align 4, !tbaa !21
  %24 = getelementptr inbounds nuw i8, ptr %1, i64 16
  store i32 %22, ptr %24, align 8, !tbaa !31
  %25 = tail call i32 (ptr, ptr, ...) @fprintf(ptr noundef %4, ptr noundef nonnull @.str.10, i32 noundef %22, i32 noundef %5, i32 noundef %7, i32 noundef %9) #9
  br label %26

26:                                               ; preds = %21, %19, %13
  ret i32 0
}